; Function Attrs: mustprogress null_pointer_is_valid sspstrong uwtable
define noundef ptr @_ZN10TrafficTab18dataModelForWidgetEP7QWidget(ptr readnone align 8 captures(none) %0, ptr noundef %1) local_unnamed_addr #3 align 2 {
  %3 = tail call noundef ptr @_ZNK11QMetaObject4castEPK7QObject(ptr noundef nonnull align 8 dereferenceable_or_null(56) @_ZN9QTreeView16staticMetaObjectE, ptr noundef %1)
  %.not.i = icmp eq ptr %3, null
  br i1 %.not.i, label %_ZN10TrafficTab14modelForWidgetEP7QWidget.exit.thread, label %4

4:                                                ; preds = %2
  %5 = tail call noundef ptr @_ZNK11QMetaObject4castEPK7QObject(ptr noundef nonnull align 8 dereferenceable_or_null(56) @_ZN9QTreeView16staticMetaObjectE, ptr noundef %1)
  %6 = tail call noundef ptr @_ZNK17QAbstractItemView5modelEv(ptr noundef align 8 dereferenceable_or_null(40) %5)
  %7 = tail call noundef ptr @_ZNK11QMetaObject4castEPK7QObject(ptr noundef nonnull align 8 dereferenceable_or_null(56) @_ZN22TrafficDataFilterProxy16staticMetaObjectE, ptr noundef %6)
  %.not6.not.i = icmp eq ptr %7, null
  br i1 %.not6.not.i, label %_ZN10TrafficTab14modelForWidgetEP7QWidget.exit.thread, label %_ZN10TrafficTab14modelForWidgetEP7QWidget.exit

_ZN10TrafficTab14modelForWidgetEP7QWidget.exit:   ; preds = %4
  %8 = tail call noundef ptr @_ZNK17QAbstractItemView5modelEv(ptr noundef align 8 dereferenceable_or_null(40) %5)
  %9 = tail call noundef ptr @_ZNK11QMetaObject4castEPK7QObject(ptr noundef nonnull align 8 dereferenceable_or_null(56) @_ZN22TrafficDataFilterProxy16staticMetaObjectE, ptr noundef %8)
  %.not = icmp eq ptr %9, null
  br i1 %.not, label %_ZN10TrafficTab14modelForWidgetEP7QWidget.exit.thread, label %10

10:                                               ; preds = %_ZN10TrafficTab14modelForWidgetEP7QWidget.exit
  %11 = tail call noundef ptr @_ZNK19QAbstractProxyModel11sourceModelEv(ptr noundef nonnull align 8 dereferenceable_or_null(16) %9)
  %12 = tail call noundef ptr @_ZNK11QMetaObject4castEPK7QObject(ptr noundef nonnull align 8 dereferenceable_or_null(56) @_ZN13ATapDataModel16staticMetaObjectE, ptr noundef %11)
  %.not7 = icmp eq ptr %12, null
  br i1 %.not7, label %_ZN10TrafficTab14modelForWidgetEP7QWidget.exit.thread, label %13

13:                                               ; preds = %10
  %14 = tail call noundef ptr @_ZNK19QAbstractProxyModel11sourceModelEv(ptr noundef nonnull align 8 dereferenceable_or_null(16) %9)
  %15 = tail call noundef ptr @_ZNK11QMetaObject4castEPK7QObject(ptr noundef nonnull align 8 dereferenceable_or_null(56) @_ZN13ATapDataModel16staticMetaObjectE, ptr noundef %14)
  br label %_ZN10TrafficTab14modelForWidgetEP7QWidget.exit.thread

_ZN10TrafficTab14modelForWidgetEP7QWidget.exit.thread: ; preds = %4, %2, %_ZN10TrafficTab14modelForWidgetEP7QWidget.exit, %10, %13
  %.0 = phi ptr [ %15, %13 ], [ null, %10 ], [ null, %_ZN10TrafficTab14modelForWidgetEP7QWidget.exit ], [ null, %2 ], [ null, %4 ]
  ret ptr %.0
}